; Function Attrs: mustprogress nounwind uwtable
define internal void @_ZNK12_GLOBAL__N_124RISCVInstructionSelector14renderImmPlus1ERN4llvm19MachineInstrBuilderERKNS1_12MachineInstrEi(ptr nocapture nonnull readnone align 8 %0, ptr nocapture noundef nonnull readonly align 8 dereferenceable(16) %1, ptr nocapture noundef nonnull readonly align 8 dereferenceable(70) %2, i32 %3) #0 align 2 {
  %5 = alloca %"class.llvm::MachineOperand", align 8
  %6 = getelementptr inbounds nuw i8, ptr %2, i64 32
  %7 = load ptr, ptr %6, align 8
  %8 = getelementptr inbounds i8, ptr %7, i64 48
  %9 = load ptr, ptr %8, align 8
  %10 = getelementptr inbounds nuw i8, ptr %9, i64 24
  %11 = getelementptr inbounds i8, ptr %9, i64 32
  %12 = load i32, ptr %11, align 8
  %13 = icmp ult i32 %12, 65
  br i1 %13, label %14, label %21

14:                                               ; preds = %4
  %15 = load i64, ptr %10, align 8
  %16 = icmp eq i32 %12, 0
  %17 = sub nuw nsw i32 64, %12
  %18 = zext nneg i32 %17 to i64
  %19 = shl i64 %15, %18
  %20 = ashr exact i64 %19, %18
  %.0.i.i.i = select i1 %16, i64 0, i64 %20
  br label %_ZNK4llvm11ConstantInt12getSExtValueEv.exit

21:                                               ; preds = %4
  %22 = load ptr, ptr %10, align 8
  %23 = load i64, ptr %22, align 8
  br label %_ZNK4llvm11ConstantInt12getSExtValueEv.exit

_ZNK4llvm11ConstantInt12getSExtValueEv.exit:      ; preds = %14, %21
  %.0.i.i = phi i64 [ %.0.i.i.i, %14 ], [ %23, %21 ]
  %24 = add nsw i64 %.0.i.i, 1
  call void @llvm.lifetime.start.p0(i64 32, ptr nonnull %5)
  %25 = getelementptr inbounds nuw i8, ptr %1, i64 8
  %26 = load ptr, ptr %25, align 8
  %27 = load ptr, ptr %1, align 8
  store i32 1, ptr %5, align 8, !alias.scope !100
  %28 = getelementptr inbounds nuw i8, ptr %5, i64 8
  store ptr null, ptr %28, align 8, !alias.scope !100
  %29 = getelementptr inbounds nuw i8, ptr %5, i64 16
  store i64 %24, ptr %29, align 8, !alias.scope !100
  call void @_ZN4llvm12MachineInstr10addOperandERNS_15MachineFunctionERKNS_14MachineOperandE(ptr noundef nonnull align 8 dereferenceable(70) %26, ptr noundef nonnull align 8 dereferenceable(1041) %27, ptr noundef nonnull align 8 dereferenceable(32) %5) #24
  call void @llvm.lifetime.end.p0(i64 32, ptr nonnull %5)
  ret void
}